target datalayout = "e-m:e-p270:32:32-p271:32:32-p272:64:64-i64:64-i128:128-f80:128-n8:16:32:64-S128"
target triple = "x86_64-pc-linux-gnu"

@H5P_CLS_DATASET_XFER_ID_g = external global i64, align 8
@H5_libinit_g = external global i8, align 1
@H5_libterm_g = external global i8, align 1
@.str.1 = private unnamed_addr constant [101 x i8] c"generated/home/dtcxzyw/WorkSpace/Projects/compilers/llvm-opt-benchmark/bench/hdf5/hdf5/src/H5Pdxpl.c\00", align 1
@H5E_FUNC_g = external global i64, align 8
@H5E_CANTINIT_g = external global i64, align 8
@.str.2 = private unnamed_addr constant [30 x i8] c"library initialization failed\00", align 1
@H5E_CANTSET_g = external global i64, align 8
@.str.3 = private unnamed_addr constant [22 x i8] c"can't set API context\00", align 1
@H5E_ARGS_g = external global i64, align 8
@H5E_BADVALUE_g = external global i64, align 8
@H5E_ID_g = external global i64, align 8
@H5E_BADID_g = external global i64, align 8
@.str.5 = private unnamed_addr constant [25 x i8] c"can't find object for ID\00", align 1
@H5E_PLIST_g = external global i64, align 8
@.str.23 = private unnamed_addr constant [20 x i8] c"unable to set value\00", align 1
@__func__.H5Pset_edc_check = private unnamed_addr constant [17 x i8] c"H5Pset_edc_check\00", align 1
@.str.25 = private unnamed_addr constant [18 x i8] c"not a valid value\00", align 1
@.str.26 = private unnamed_addr constant [11 x i8] c"err_detect\00", align 1

; Function Attrs: nounwind uwtable
define i32 @H5Pset_edc_check(i64 noundef %0, i32 noundef %1) #0 {
  %3 = alloca i64, align 8
  %4 = alloca i32, align 4
  %5 = alloca ptr, align 8
  %6 = alloca i32, align 4
  %7 = alloca i8, align 1
  %8 = alloca i8, align 1
  store i64 %0, ptr %3, align 8
  store i32 %1, ptr %4, align 4
  store i32 0, ptr %6, align 4
  store i8 0, ptr %7, align 1
  store i8 0, ptr %8, align 1
  %9 = load i8, ptr @H5_libinit_g, align 1
  %10 = trunc i8 %9 to i1
  br i1 %10, label %15, label %11

11:                                               ; preds = %2
  %12 = load i8, ptr @H5_libterm_g, align 1
  %13 = trunc i8 %12 to i1
  %14 = xor i1 %13, true
  br label %15

15:                                               ; preds = %11, %2
  %16 = phi i1 [ false, %2 ], [ %14, %11 ]
  %17 = xor i1 %16, true
  %18 = xor i1 %17, true
  %19 = zext i1 %18 to i32
  %20 = sext i32 %19 to i64
  %21 = icmp ne i64 %20, 0
  br i1 %21, label %22, label %46

22:                                               ; preds = %15
  %23 = call i32 @H5_init_library()
  %24 = icmp slt i32 %23, 0
  %25 = xor i1 %24, true
  %26 = xor i1 %25, true
  %27 = zext i1 %26 to i32
  %28 = sext i32 %27 to i64
  %29 = icmp ne i64 %28, 0
  br i1 %29, label %30, label %45

30:                                               ; preds = %22
  br label %31

31:                                               ; preds = %30
  br label %32

32:                                               ; preds = %31
  br label %33

33:                                               ; preds = %32
  %34 = load i64, ptr @H5E_FUNC_g, align 8
  %35 = load i64, ptr @H5E_CANTINIT_g, align 8
  %36 = call i32 (ptr, ptr, i32, i64, i64, ptr, ...) @H5E_printf_stack(ptr noundef @.str.1, ptr noundef @__func__.H5Pset_edc_check, i32 noundef 1239, i64 noundef %34, i64 noundef %35, ptr noundef @.str.2)
  br label %37

37:                                               ; preds = %33
  store i8 1, ptr %8, align 1
  %38 = load i8, ptr %8, align 1
  %39 = trunc i8 %38 to i1
  %40 = zext i1 %39 to i8
  store i8 %40, ptr %8, align 1
  br label %41

41:                                               ; preds = %37
  br label %42

42:                                               ; preds = %41
  store i32 -1, ptr %6, align 4
  br label %132

43:                                               ; No predecessors!
  br label %44

44:                                               ; preds = %43
  br label %45

45:                                               ; preds = %44, %22
  br label %46

46:                                               ; preds = %45, %15
  %47 = call i32 @H5CX_push()
  %48 = icmp slt i32 %47, 0
  %49 = xor i1 %48, true
  %50 = xor i1 %49, true
  %51 = zext i1 %50 to i32
  %52 = sext i32 %51 to i64
  %53 = icmp ne i64 %52, 0
  br i1 %53, label %54, label %69

54:                                               ; preds = %46
  br label %55

55:                                               ; preds = %54
  br label %56

56:                                               ; preds = %55
  br label %57

57:                                               ; preds = %56
  %58 = load i64, ptr @H5E_FUNC_g, align 8
  %59 = load i64, ptr @H5E_CANTSET_g, align 8
  %60 = call i32 (ptr, ptr, i32, i64, i64, ptr, ...) @H5E_printf_stack(ptr noundef @.str.1, ptr noundef @__func__.H5Pset_edc_check, i32 noundef 1239, i64 noundef %58, i64 noundef %59, ptr noundef @.str.3)
  br label %61

61:                                               ; preds = %57
  store i8 1, ptr %8, align 1
  %62 = load i8, ptr %8, align 1
  %63 = trunc i8 %62 to i1
  %64 = zext i1 %63 to i8
  store i8 %64, ptr %8, align 1
  br label %65

65:                                               ; preds = %61
  br label %66

66:                                               ; preds = %65
  store i32 -1, ptr %6, align 4
  br label %132

67:                                               ; No predecessors!
  br label %68

68:                                               ; preds = %67
  br label %70

69:                                               ; preds = %46
  store i8 1, ptr %7, align 1
  br label %70

70:                                               ; preds = %69, %68
  %71 = call i32 @H5E_clear_stack()
  %72 = load i32, ptr %4, align 4
  %73 = icmp ne i32 %72, 1
  br i1 %73, label %74, label %92

74:                                               ; preds = %70
  %75 = load i32, ptr %4, align 4
  %76 = icmp ne i32 %75, 0
  br i1 %76, label %77, label %92

77:                                               ; preds = %74
  br label %78

78:                                               ; preds = %77
  br label %79

79:                                               ; preds = %78
  br label %80

80:                                               ; preds = %79
  %81 = load i64, ptr @H5E_ARGS_g, align 8
  %82 = load i64, ptr @H5E_BADVALUE_g, align 8
  %83 = call i32 (ptr, ptr, i32, i64, i64, ptr, ...) @H5E_printf_stack(ptr noundef @.str.1, ptr noundef @__func__.H5Pset_edc_check, i32 noundef 1243, i64 noundef %81, i64 noundef %82, ptr noundef @.str.25)
  br label %84

84:                                               ; preds = %80
  store i8 1, ptr %8, align 1
  %85 = load i8, ptr %8, align 1
  %86 = trunc i8 %85 to i1
  %87 = zext i1 %86 to i8
  store i8 %87, ptr %8, align 1
  br label %88

88:                                               ; preds = %84
  br label %89

89:                                               ; preds = %88
  store i32 -1, ptr %6, align 4
  br label %132

90:                                               ; No predecessors!
  br label %91

91:                                               ; preds = %90
  br label %92

92:                                               ; preds = %91, %74, %70
  %93 = load i64, ptr %3, align 8
  %94 = load i64, ptr @H5P_CLS_DATASET_XFER_ID_g, align 8
  %95 = call ptr @H5P_object_verify(i64 noundef %93, i64 noundef %94)
  store ptr %95, ptr %5, align 8
  %96 = icmp eq ptr null, %95
  br i1 %96, label %97, label %112

97:                                               ; preds = %92
  br label %98

98:                                               ; preds = %97
  br label %99

99:                                               ; preds = %98
  br label %100

100:                                              ; preds = %99
  %101 = load i64, ptr @H5E_ID_g, align 8
  %102 = load i64, ptr @H5E_BADID_g, align 8
  %103 = call i32 (ptr, ptr, i32, i64, i64, ptr, ...) @H5E_printf_stack(ptr noundef @.str.1, ptr noundef @__func__.H5Pset_edc_check, i32 noundef 1247, i64 noundef %101, i64 noundef %102, ptr noundef @.str.5)
  br label %104

104:                                              ; preds = %100
  store i8 1, ptr %8, align 1
  %105 = load i8, ptr %8, align 1
  %106 = trunc i8 %105 to i1
  %107 = zext i1 %106 to i8
  store i8 %107, ptr %8, align 1
  br label %108

108:                                              ; preds = %104
  br label %109

109:                                              ; preds = %108
  store i32 -1, ptr %6, align 4
  br label %132

110:                                              ; No predecessors!
  br label %111

111:                                              ; preds = %110
  br label %112

112:                                              ; preds = %111, %92
  %113 = load ptr, ptr %5, align 8
  %114 = call i32 @H5P_set(ptr noundef %113, ptr noundef @.str.26, ptr noundef %4)
  %115 = icmp slt i32 %114, 0
  br i1 %115, label %116, label %131

116:                                              ; preds = %112
  br label %117

117:                                              ; preds = %116
  br label %118

118:                                              ; preds = %117
  br label %119

119:                                              ; preds = %118
  %120 = load i64, ptr @H5E_PLIST_g, align 8
  %121 = load i64, ptr @H5E_CANTSET_g, align 8
  %122 = call i32 (ptr, ptr, i32, i64, i64, ptr, ...) @H5E_printf_stack(ptr noundef @.str.1, ptr noundef @__func__.H5Pset_edc_check, i32 noundef 1251, i64 noundef %120, i64 noundef %121, ptr noundef @.str.23)
  br label %123

123:                                              ; preds = %119
  store i8 1, ptr %8, align 1
  %124 = load i8, ptr %8, align 1
  %125 = trunc i8 %124 to i1
  %126 = zext i1 %125 to i8
  store i8 %126, ptr %8, align 1
  br label %127

127:                                              ; preds = %123
  br label %128

128:                                              ; preds = %127
  store i32 -1, ptr %6, align 4
  br label %132

129:                                              ; No predecessors!
  br label %130

130:                                              ; preds = %129
  br label %131

131:                                              ; preds = %130, %112
  br label %132

132:                                              ; preds = %131, %128, %109, %89, %66, %42
  %133 = load i8, ptr %7, align 1
  %134 = trunc i8 %133 to i1
  %135 = xor i1 %134, true
  %136 = xor i1 %135, true
  %137 = zext i1 %136 to i32
  %138 = sext i32 %137 to i64
  %139 = icmp ne i64 %138, 0
  br i1 %139, label %140, label %142

140:                                              ; preds = %132
  %141 = call i32 @H5CX_pop(i1 noundef zeroext true)
  store i8 0, ptr %7, align 1
  br label %142

142:                                              ; preds = %140, %132
  %143 = load i8, ptr %8, align 1
  %144 = trunc i8 %143 to i1
  %145 = xor i1 %144, true
  %146 = xor i1 %145, true
  %147 = zext i1 %146 to i32
  %148 = sext i32 %147 to i64
  %149 = icmp ne i64 %148, 0
  br i1 %149, label %150, label %152

150:                                              ; preds = %142
  %151 = call i32 @H5E_dump_api_stack()
  br label %152

152:                                              ; preds = %150, %142
  %153 = load i32, ptr %6, align 4
  ret i32 %153
}